target datalayout = "e-m:e-p270:32:32-p271:32:32-p272:64:64-i64:64-i128:128-f80:128-n8:16:32:64-S128"
target triple = "x86_64-pc-linux-gnu"

%struct.DecoderPriv = type { %struct.Decoder, ptr, ptr, ptr, ptr, %struct.AVRational, %struct.AVRational, i32, i32, i32, i32, i32, i32, i64, i64, %struct.AVRational, i64, i32, [2 x ptr], ptr, ptr, i32, i32, ptr, [32 x i8], ptr, i32, ptr, i32, ptr, i32, %struct.anon }
%struct.Decoder = type { ptr, i32, ptr, i32, i64, i64, i64 }
%struct.AVRational = type { i32, i32 }
%struct.anon = type { ptr, ptr }

@.str.46 = private unnamed_addr constant [9 x i8] c"view_ids\00", align 1
@.str.47 = private unnamed_addr constant [89 x i8] c"Manually selecting views with -view_ids is not recommended, use view specifiers instead\0A\00", align 1

; Function Attrs: nounwind uwtable
define internal void @multiview_check_manual(ptr noundef %0, ptr noundef %1) #0 {
  %3 = alloca ptr, align 8
  %4 = alloca ptr, align 8
  store ptr %0, ptr %3, align 8, !tbaa !12
  store ptr %1, ptr %4, align 8, !tbaa !61
  %5 = load ptr, ptr %4, align 8, !tbaa !61
  %6 = call ptr @av_dict_get(ptr noundef %5, ptr noundef @.str.46, ptr noundef null, i32 noundef 0)
  %7 = icmp ne ptr %6, null
  br i1 %7, label %8, label %12

8:                                                ; preds = %2
  %9 = load ptr, ptr %3, align 8, !tbaa !12
  call void (ptr, i32, ptr, ...) @av_log(ptr noundef %9, i32 noundef 24, ptr noundef @.str.47)
  %10 = load ptr, ptr %3, align 8, !tbaa !12
  %11 = getelementptr inbounds nuw %struct.DecoderPriv, ptr %10, i32 0, i32 26
  store i32 1, ptr %11, align 8, !tbaa !22
  br label %12

12:                                               ; preds = %8, %2
  ret void
}