; Function Attrs: nounwind uwtable
define internal fastcc void @multiview_check_manual(ptr noundef %0, ptr noundef %1) unnamed_addr #0 {
  %3 = tail call ptr @av_dict_get(ptr noundef %1, ptr noundef nonnull @.str.46, ptr noundef null, i32 noundef 0) #13
  %.not = icmp eq ptr %3, null
  br i1 %.not, label %6, label %4

4:                                                ; preds = %2
  tail call void (ptr, i32, ptr, ...) @av_log(ptr noundef %0, i32 noundef 24, ptr noundef nonnull @.str.47) #13
  %5 = getelementptr inbounds nuw i8, ptr %0, i64 256
  store i32 1, ptr %5, align 8, !tbaa !9
  br label %6

6:                                                ; preds = %4, %2
  ret void
}